; Function Attrs: mustprogress uwtable
define hidden void @_ZN7testing8internal17TestEventRepeater25OnEnvironmentsTearDownEndERKNS_8UnitTestE(ptr noundef nonnull readonly align 8 captures(none) dereferenceable(40) %0, ptr noundef nonnull align 8 dereferenceable(72) %1) unnamed_addr #4 align 2 {
  %3 = getelementptr inbounds nuw i8, ptr %0, i64 8
  %4 = load i8, ptr %3, align 8, !tbaa !723, !range !68, !noundef !69
  %5 = trunc nuw i8 %4 to i1
  br i1 %5, label %6, label %.loopexit

6:                                                ; preds = %2
  %7 = getelementptr inbounds nuw i8, ptr %0, i64 16
  %8 = getelementptr inbounds nuw i8, ptr %0, i64 24
  %9 = load ptr, ptr %8, align 8, !tbaa !720
  %10 = load ptr, ptr %7, align 8, !tbaa !718
  %11 = ptrtoint ptr %9 to i64
  %12 = ptrtoint ptr %10 to i64
  %13 = sub i64 %11, %12
  %14 = lshr exact i64 %13, 3
  %15 = trunc i64 %14 to i32
  %16 = icmp sgt i32 %15, 0
  br i1 %16, label %.lr.ph.preheader, label %.loopexit

.lr.ph.preheader:                                 ; preds = %6
  %17 = and i64 %14, 2147483647
  br label %.lr.ph

.lr.ph:                                           ; preds = %.lr.ph.preheader, %.lr.ph
  %indvars.iv = phi i64 [ %17, %.lr.ph.preheader ], [ %indvars.iv.next, %.lr.ph ]
  %indvars.iv.next = add nsw i64 %indvars.iv, -1
  %18 = load ptr, ptr %7, align 8, !tbaa !718
  %19 = getelementptr inbounds nuw ptr, ptr %18, i64 %indvars.iv.next
  %20 = load ptr, ptr %19, align 8, !tbaa !716
  %21 = load ptr, ptr %20, align 8, !tbaa !23
  %22 = getelementptr inbounds nuw i8, ptr %21, i64 96
  %23 = load ptr, ptr %22, align 8
  tail call void %23(ptr noundef nonnull align 8 dereferenceable(8) %20, ptr noundef nonnull align 8 dereferenceable(72) %1)
  %24 = icmp samesign ugt i64 %indvars.iv, 1
  br i1 %24, label %.lr.ph, label %.loopexit, !llvm.loop !736

.loopexit:                                        ; preds = %.lr.ph, %6, %2
  ret void
}